target datalayout = "e-m:e-p270:32:32-p271:32:32-p272:64:64-i64:64-i128:128-f80:128-n8:16:32:64-S128"
target triple = "x86_64-pc-linux-gnu"

%struct.mbedtls_asn1_bitstring = type { i64, i8, ptr }

@.str = private unnamed_addr constant [118 x i8] c"generated/home/dtcxzyw/WorkSpace/Projects/compilers/llvm-opt-benchmark/bench/lief/bench_build/mbed_src/library/x509.c\00", align 1

; Function Attrs: inlinehint nounwind uwtable
define internal i32 @mbedtls_error_add(i32 noundef %0, i32 noundef %1, ptr noundef %2, i32 noundef %3) #2 {
  %5 = alloca i32, align 4
  %6 = alloca i32, align 4
  %7 = alloca ptr, align 8
  %8 = alloca i32, align 4
  store i32 %0, ptr %5, align 4, !tbaa !13
  store i32 %1, ptr %6, align 4, !tbaa !13
  store ptr %2, ptr %7, align 8, !tbaa !9
  store i32 %3, ptr %8, align 4, !tbaa !13
  %9 = load i32, ptr %5, align 4, !tbaa !13
  %10 = load i32, ptr %6, align 4, !tbaa !13
  %11 = add nsw i32 %9, %10
  ret i32 %11
}

; Function Attrs: nounwind uwtable
define hidden i32 @mbedtls_x509_get_ns_cert_type(ptr noundef %0, ptr noundef %1, ptr noundef %2) #0 {
  %4 = alloca i32, align 4
  %5 = alloca ptr, align 8
  %6 = alloca ptr, align 8
  %7 = alloca ptr, align 8
  %8 = alloca i32, align 4
  %9 = alloca %struct.mbedtls_asn1_bitstring, align 8
  %10 = alloca i32, align 4
  store ptr %0, ptr %5, align 8, !tbaa !3
  store ptr %1, ptr %6, align 8, !tbaa !9
  store ptr %2, ptr %7, align 8, !tbaa !9
  call void @llvm.lifetime.start.p0(i64 4, ptr %8) #9
  store i32 -110, ptr %8, align 4, !tbaa !13
  call void @llvm.lifetime.start.p0(i64 24, ptr %9) #9
  call void @llvm.memset.p0.i64(ptr align 8 %9, i8 0, i64 24, i1 false)
  %11 = load ptr, ptr %5, align 8, !tbaa !3
  %12 = load ptr, ptr %6, align 8, !tbaa !9
  %13 = call i32 @mbedtls_asn1_get_bitstring(ptr noundef %11, ptr noundef %12, ptr noundef %9)
  store i32 %13, ptr %8, align 4, !tbaa !13
  %14 = icmp ne i32 %13, 0
  br i1 %14, label %15, label %18

15:                                               ; preds = %3
  %16 = load i32, ptr %8, align 4, !tbaa !13
  %17 = call i32 @mbedtls_error_add(i32 noundef -9472, i32 noundef %16, ptr noundef @.str, i32 noundef 1346)
  store i32 %17, ptr %4, align 4
  store i32 1, ptr %10, align 4
  br label %35

18:                                               ; preds = %3
  %19 = getelementptr inbounds nuw %struct.mbedtls_asn1_bitstring, ptr %9, i32 0, i32 0
  %20 = load i64, ptr %19, align 8, !tbaa !73
  %21 = icmp eq i64 %20, 0
  br i1 %21, label %22, label %24

22:                                               ; preds = %18
  %23 = load ptr, ptr %7, align 8, !tbaa !9
  store i8 0, ptr %23, align 1, !tbaa !15
  store i32 0, ptr %4, align 4
  store i32 1, ptr %10, align 4
  br label %35

24:                                               ; preds = %18
  %25 = getelementptr inbounds nuw %struct.mbedtls_asn1_bitstring, ptr %9, i32 0, i32 0
  %26 = load i64, ptr %25, align 8, !tbaa !73
  %27 = icmp ne i64 %26, 1
  br i1 %27, label %28, label %30

28:                                               ; preds = %24
  %29 = call i32 @mbedtls_error_add(i32 noundef -9472, i32 noundef -100, ptr noundef @.str, i32 noundef 1358)
  store i32 %29, ptr %4, align 4
  store i32 1, ptr %10, align 4
  br label %35

30:                                               ; preds = %24
  %31 = getelementptr inbounds nuw %struct.mbedtls_asn1_bitstring, ptr %9, i32 0, i32 2
  %32 = load ptr, ptr %31, align 8, !tbaa !75
  %33 = load i8, ptr %32, align 1, !tbaa !15
  %34 = load ptr, ptr %7, align 8, !tbaa !9
  store i8 %33, ptr %34, align 1, !tbaa !15
  store i32 0, ptr %4, align 4
  store i32 1, ptr %10, align 4
  br label %35

35:                                               ; preds = %30, %28, %22, %15
  call void @llvm.lifetime.end.p0(i64 24, ptr %9) #9
  call void @llvm.lifetime.end.p0(i64 4, ptr %8) #9
  %36 = load i32, ptr %4, align 4
  ret i32 %36
}