; Function Attrs: nounwind uwtable
define hidden range(i32 -2147483648, 2147474176) i32 @mbedtls_x509_get_ns_cert_type(ptr noundef %0, ptr noundef %1, ptr noundef writeonly captures(none) %2) local_unnamed_addr #0 {
  %4 = alloca %struct.mbedtls_asn1_bitstring, align 8
  call void @llvm.lifetime.start.p0(i64 24, ptr nonnull %4) #13
  call void @llvm.memset.p0.i64(ptr noundef nonnull align 8 dereferenceable(24) %4, i8 0, i64 24, i1 false)
  %5 = call i32 @mbedtls_asn1_get_bitstring(ptr noundef %0, ptr noundef %1, ptr noundef nonnull %4) #13
  %.not = icmp eq i32 %5, 0
  br i1 %.not, label %8, label %6

6:                                                ; preds = %3
  %7 = add nsw i32 %5, -9472
  br label %15

8:                                                ; preds = %3
  %9 = load i64, ptr %4, align 8, !tbaa !57
  switch i64 %9, label %15 [
    i64 0, label %10
    i64 1, label %11
  ]

10:                                               ; preds = %8
  store i8 0, ptr %2, align 1, !tbaa !8
  br label %15

11:                                               ; preds = %8
  %12 = getelementptr inbounds nuw i8, ptr %4, i64 16
  %13 = load ptr, ptr %12, align 8, !tbaa !59
  %14 = load i8, ptr %13, align 1, !tbaa !8
  store i8 %14, ptr %2, align 1, !tbaa !8
  br label %15

15:                                               ; preds = %8, %11, %10, %6
  %.0 = phi i32 [ %7, %6 ], [ 0, %10 ], [ 0, %11 ], [ -9572, %8 ]
  call void @llvm.lifetime.end.p0(i64 24, ptr nonnull %4) #13
  ret i32 %.0
}